; Function Attrs: nofree nounwind uwtable
define internal fastcc void @ico_size(ptr noundef captures(none) initializes((72, 76)) %0) unnamed_addr #5 {
  %2 = getelementptr inbounds nuw i8, ptr %0, i64 72
  store i32 0, ptr %2, align 8
  %3 = getelementptr inbounds nuw i8, ptr %0, i64 32
  %4 = load ptr, ptr %3, align 8
  %5 = tail call i32 @fseek(ptr noundef %4, i64 noundef 6, i32 noundef 0)
  %6 = load ptr, ptr %3, align 8
  %7 = tail call i32 @fgetc(ptr noundef %6)
  %8 = tail call i32 @feof(ptr noundef %6) #21
  %.not.i = icmp ne i32 %8, 0
  %9 = icmp slt i32 %7, 0
  %or.cond = or i1 %.not.i, %9
  br i1 %or.cond, label %get_int_msb_first.exit.thread, label %get_int_msb_first.exit

get_int_msb_first.exit:                           ; preds = %1
  %10 = load ptr, ptr %3, align 8
  %11 = tail call i32 @fgetc(ptr noundef %10)
  %12 = tail call i32 @feof(ptr noundef %10) #21
  %.not.i8 = icmp ne i32 %12, 0
  %13 = icmp slt i32 %11, 0
  %or.cond22 = or i1 %.not.i8, %13
  br i1 %or.cond22, label %get_int_msb_first.exit.thread, label %get_int_msb_first.exit11

get_int_msb_first.exit11:                         ; preds = %get_int_msb_first.exit
  %14 = getelementptr inbounds nuw i8, ptr %0, i64 64
  store i32 %7, ptr %14, align 8
  %15 = getelementptr inbounds nuw i8, ptr %0, i64 68
  store i32 %11, ptr %15, align 4
  br label %get_int_msb_first.exit.thread

get_int_msb_first.exit.thread:                    ; preds = %1, %get_int_msb_first.exit, %get_int_msb_first.exit11
  ret void
}